; Function Attrs: mustprogress uwtable
define dso_local noundef ptr @_ZN7AstNode19getCommonClassTypepEPS_S0_(ptr noundef %0, ptr noundef %1) local_unnamed_addr #4 align 2 {
  %.not.i = icmp eq ptr %0, null
  br i1 %.not.i, label %_ZN7AstNode9privateIsI8AstConstPS_EEbPKS_.exit.thread, label %_ZN7AstNode9privateIsI8AstConstPS_EEbPKS_.exit

_ZN7AstNode9privateIsI8AstConstPS_EEbPKS_.exit:   ; preds = %2
  %3 = getelementptr inbounds i8, ptr %0, i64 64
  %.sroa.0.0.copyload.i.i.i = load i16, ptr %3, align 8
  %4 = icmp eq i16 %.sroa.0.0.copyload.i.i.i, 95
  %spec.select = select i1 %4, ptr %0, ptr %1
  %spec.select28 = select i1 %4, ptr %1, ptr %0
  br label %_ZN7AstNode9privateIsI8AstConstPS_EEbPKS_.exit.thread

_ZN7AstNode9privateIsI8AstConstPS_EEbPKS_.exit.thread: ; preds = %_ZN7AstNode9privateIsI8AstConstPS_EEbPKS_.exit, %2
  %.027 = phi ptr [ %1, %2 ], [ %spec.select, %_ZN7AstNode9privateIsI8AstConstPS_EEbPKS_.exit ]
  %.026 = phi ptr [ null, %2 ], [ %spec.select28, %_ZN7AstNode9privateIsI8AstConstPS_EEbPKS_.exit ]
  %5 = getelementptr inbounds i8, ptr %.026, i64 72
  %6 = load ptr, ptr %5, align 8
  %7 = getelementptr inbounds i8, ptr %.027, i64 72
  %8 = load ptr, ptr %7, align 8
  %9 = tail call i8 @_ZN7AstNode15computeCastableEPK12AstNodeDTypeS2_PKS_(ptr noundef %6, ptr noundef %8, ptr noundef %.027)
  switch i8 %9, label %11 [
    i8 1, label %.loopexit.sink.split
    i8 2, label %.loopexit.sink.split
    i8 5, label %10
  ]

10:                                               ; preds = %_ZN7AstNode9privateIsI8AstConstPS_EEbPKS_.exit.thread
  br label %.loopexit.sink.split

11:                                               ; preds = %_ZN7AstNode9privateIsI8AstConstPS_EEbPKS_.exit.thread
  %12 = load ptr, ptr %5, align 8
  %.not.i10 = icmp eq ptr %12, null
  br i1 %.not.i10, label %.loopexit, label %13

13:                                               ; preds = %11
  %14 = getelementptr inbounds i8, ptr %12, i64 64
  %.sroa.0.0.copyload.i.i.i11 = load i16, ptr %14, align 8
  %15 = icmp eq i16 %.sroa.0.0.copyload.i.i.i11, 56
  br i1 %15, label %.lr.ph, label %.loopexit

.lr.ph:                                           ; preds = %13, %27
  %.0732 = phi ptr [ %26, %27 ], [ %12, %13 ]
  %16 = load ptr, ptr %7, align 8
  %17 = tail call i8 @_ZN7AstNode15computeCastableEPK12AstNodeDTypeS2_PKS_(ptr noundef nonnull %.0732, ptr noundef %16, ptr noundef nonnull %.027)
  %18 = icmp eq i8 %17, 2
  br i1 %18, label %.loopexit, label %19

19:                                               ; preds = %.lr.ph
  %20 = getelementptr inbounds i8, ptr %.0732, i64 168
  %21 = load ptr, ptr %20, align 8
  %22 = getelementptr inbounds i8, ptr %21, i64 48
  %23 = load ptr, ptr %22, align 8
  %.not9 = icmp eq ptr %23, null
  br i1 %.not9, label %.loopexit, label %24

24:                                               ; preds = %19
  %25 = getelementptr inbounds i8, ptr %23, i64 72
  %26 = load ptr, ptr %25, align 8
  %.not.i12 = icmp eq ptr %26, null
  br i1 %.not.i12, label %.loopexit, label %27

27:                                               ; preds = %24
  %28 = getelementptr inbounds i8, ptr %26, i64 64
  %.sroa.0.0.copyload.i.i.i13 = load i16, ptr %28, align 8
  %.not6.i = icmp eq i16 %.sroa.0.0.copyload.i.i.i13, 56
  br i1 %.not6.i, label %.lr.ph, label %29, !llvm.loop !111

29:                                               ; preds = %27
  %30 = getelementptr inbounds i8, ptr %26, i64 64
  %31 = tail call noundef nonnull align 8 dereferenceable(112) ptr @_ZN7V3Error19v3errorPrepFileLineB5cxx11E11V3ErrorCodePKcib(i8 4, ptr noundef nonnull @.str.1140, i32 noundef 2428, i1 noundef zeroext false)
  %32 = tail call noundef nonnull align 8 dereferenceable(112) ptr @_ZN7V3Error10v3errorStrB5cxx11Ev()
  %33 = tail call noundef nonnull align 8 dereferenceable(8) ptr @_ZStlsISt11char_traitsIcEERSt13basic_ostreamIcT_ES5_PKc(ptr noundef nonnull align 8 dereferenceable(8) %32, ptr noundef nonnull @.str.1154)
  %.sroa.0.0.copyload.i.i5.i = load i16, ptr %30, align 8
  %34 = zext i16 %.sroa.0.0.copyload.i.i5.i to i64
  %35 = getelementptr inbounds [422 x ptr], ptr @_ZZNK6VNType5asciiEvE5names, i64 0, i64 %34
  %36 = load ptr, ptr %35, align 8
  %37 = tail call noundef nonnull align 8 dereferenceable(8) ptr @_ZStlsISt11char_traitsIcEERSt13basic_ostreamIcT_ES5_PKc(ptr noundef nonnull align 8 dereferenceable(8) %33, ptr noundef %36)
  %38 = tail call noundef nonnull align 8 dereferenceable(8) ptr @_ZStlsISt11char_traitsIcEERSt13basic_ostreamIcT_ES5_PKc(ptr noundef nonnull align 8 dereferenceable(8) %37, ptr noundef nonnull @.str.574)
  tail call void @_ZNK7AstNode15v3errorEndFatalERNSt7__cxx1119basic_ostringstreamIcSt11char_traitsIcESaIcEEE(ptr noundef nonnull align 8 dereferenceable(152) %26, ptr noundef nonnull align 8 dereferenceable(112) %38) #25
  unreachable

.loopexit.sink.split:                             ; preds = %_ZN7AstNode9privateIsI8AstConstPS_EEbPKS_.exit.thread, %_ZN7AstNode9privateIsI8AstConstPS_EEbPKS_.exit.thread, %10
  %.sink = phi ptr [ %7, %10 ], [ %5, %_ZN7AstNode9privateIsI8AstConstPS_EEbPKS_.exit.thread ], [ %5, %_ZN7AstNode9privateIsI8AstConstPS_EEbPKS_.exit.thread ]
  %39 = load ptr, ptr %.sink, align 8
  br label %.loopexit

.loopexit:                                        ; preds = %24, %19, %.lr.ph, %.loopexit.sink.split, %13, %11
  %.0 = phi ptr [ null, %11 ], [ null, %13 ], [ %39, %.loopexit.sink.split ], [ null, %24 ], [ null, %19 ], [ %.0732, %.lr.ph ]
  ret ptr %.0
}